; Function Attrs: nounwind uwtable
define i64 @ZSTD_decompressionMargin(ptr noundef %0, i64 noundef %1) local_unnamed_addr #0 {
  %3 = alloca %struct.ZSTD_frameSizeInfo, align 8
  %4 = alloca %struct.ZSTD_FrameHeader, align 8
  %.not49 = icmp eq i64 %1, 0
  br i1 %.not49, label %._crit_edge, label %.lr.ph

.lr.ph:                                           ; preds = %2
  %5 = getelementptr inbounds nuw i8, ptr %3, i64 8
  %6 = getelementptr inbounds nuw i8, ptr %3, i64 16
  %7 = getelementptr inbounds nuw i8, ptr %4, i64 20
  %8 = getelementptr inbounds nuw i8, ptr %4, i64 24
  %9 = getelementptr inbounds nuw i8, ptr %4, i64 32
  %10 = getelementptr inbounds nuw i8, ptr %4, i64 16
  br label %11

11:                                               ; preds = %.lr.ph, %36
  %.02953 = phi ptr [ %0, %.lr.ph ], [ %37, %36 ]
  %.03152 = phi i64 [ %1, %.lr.ph ], [ %38, %36 ]
  %.03351 = phi i32 [ 0, %.lr.ph ], [ %.235, %36 ]
  %.03650 = phi i64 [ 0, %.lr.ph ], [ %.238, %36 ]
  call void @llvm.lifetime.start.p0(i64 24, ptr nonnull %3) #17
  call fastcc void @ZSTD_findFrameSizeInfo(ptr dead_on_unwind noalias writable align 8 %3, ptr noundef %.02953, i64 noundef %.03152, i32 noundef 0)
  %12 = load i64, ptr %5, align 8, !tbaa !61
  %13 = load i64, ptr %6, align 8, !tbaa !63
  call void @llvm.lifetime.start.p0(i64 48, ptr nonnull %4) #17
  %14 = call i64 @ZSTD_getFrameHeader_advanced(ptr noundef nonnull %4, ptr noundef %.02953, i64 noundef %.03152, i32 noundef 0)
  %15 = icmp ult i64 %14, -119
  br i1 %15, label %16, label %.thread

16:                                               ; preds = %11
  %17 = icmp ugt i64 %12, -120
  %18 = icmp eq i64 %13, -2
  %or.cond = select i1 %17, i1 true, i1 %18
  br i1 %or.cond, label %.thread, label %19

19:                                               ; preds = %16
  %20 = load i32, ptr %7, align 4, !tbaa !50
  %21 = icmp eq i32 %20, 0
  br i1 %21, label %22, label %34

22:                                               ; preds = %19
  %23 = load i32, ptr %8, align 8, !tbaa !52
  %24 = zext i32 %23 to i64
  %25 = add i64 %.03650, %24
  %26 = load i32, ptr %9, align 8, !tbaa !58
  %.not40 = icmp eq i32 %26, 0
  %27 = select i1 %.not40, i64 0, i64 4
  %28 = add i64 %25, %27
  %29 = load i64, ptr %3, align 8, !tbaa !68
  %30 = mul i64 %29, 3
  %31 = add i64 %28, %30
  %32 = load i32, ptr %10, align 8, !tbaa !57
  %33 = call i32 @llvm.umax.i32(i32 %.03351, i32 %32)
  br label %36

34:                                               ; preds = %19
  %35 = add i64 %12, %.03650
  br label %36

.thread:                                          ; preds = %11, %16
  %.2.ph = phi i64 [ -20, %16 ], [ %14, %11 ]
  call void @llvm.lifetime.end.p0(i64 48, ptr nonnull %4) #17
  call void @llvm.lifetime.end.p0(i64 24, ptr nonnull %3) #17
  br label %._crit_edge

36:                                               ; preds = %22, %34
  %.238 = phi i64 [ %31, %22 ], [ %35, %34 ]
  %.235 = phi i32 [ %33, %22 ], [ %.03351, %34 ]
  %37 = getelementptr inbounds nuw i8, ptr %.02953, i64 %12
  %38 = sub i64 %.03152, %12
  call void @llvm.lifetime.end.p0(i64 48, ptr nonnull %4) #17
  call void @llvm.lifetime.end.p0(i64 24, ptr nonnull %3) #17
  %.not = icmp eq i64 %38, 0
  br i1 %.not, label %._crit_edge.loopexit, label %11, !llvm.loop !81

._crit_edge.loopexit:                             ; preds = %36
  %39 = zext i32 %.235 to i64
  %40 = add i64 %.238, %39
  br label %._crit_edge

._crit_edge:                                      ; preds = %2, %._crit_edge.loopexit, %.thread
  %.3 = phi i64 [ %.2.ph, %.thread ], [ 0, %2 ], [ %40, %._crit_edge.loopexit ]
  ret i64 %.3
}